; Function Attrs: mustprogress uwtable
define void @_ZN3fmt3v1113buffered_file5closeEv(ptr noundef nonnull align 8 captures(none) dereferenceable(8) %0) local_unnamed_addr #6 align 2 personality ptr @__gxx_personality_v0 {
  %2 = alloca %"struct.fmt::v11::detail::format_arg_store.41", align 16
  %3 = load ptr, ptr %0, align 8, !tbaa !3
  %.not = icmp eq ptr %3, null
  br i1 %.not, label %13, label %4

4:                                                ; preds = %1
  %5 = tail call i32 @fclose(ptr noundef nonnull %3)
  store ptr null, ptr %0, align 8, !tbaa !3
  %.not5 = icmp eq i32 %5, 0
  br i1 %.not5, label %13, label %6

6:                                                ; preds = %4
  %7 = tail call ptr @__cxa_allocate_exception(i64 32) #17
  %8 = tail call ptr @__errno_location() #16
  %9 = load i32, ptr %8, align 4, !tbaa !9
  call void @llvm.lifetime.start.p0(i64 16, ptr nonnull %2) #17, !noalias !16
  invoke void @_ZN3fmt3v1113vsystem_errorEiNS0_17basic_string_viewIcEENS0_17basic_format_argsINS0_7contextEEE(ptr dead_on_unwind writable sret(%"class.std::system_error") align 8 %7, i32 noundef %9, ptr nonnull @.str, i64 17, i64 0, ptr nonnull %2)
          to label %10 unwind label %11

10:                                               ; preds = %6
  call void @llvm.lifetime.end.p0(i64 16, ptr nonnull %2) #17, !noalias !16
  call void @__cxa_throw(ptr %7, ptr nonnull @_ZTISt12system_error, ptr nonnull @_ZNSt12system_errorD1Ev) #19
  unreachable

11:                                               ; preds = %6
  %12 = landingpad { ptr, i32 }
          cleanup
  call void @__cxa_free_exception(ptr %7) #17
  resume { ptr, i32 } %12

13:                                               ; preds = %4, %1
  ret void
}